	.file	"rad2deg.c"
	.text
.Ltext0:
	.file 0 "/home/mahsa/Documents/MiBench/automotive/basicmath" "rad2deg.c"
	.globl	rad2deg
	.type	rad2deg, @function
rad2deg:
.LFB6:
	.file 1 "rad2deg.c"
	.loc 1 14 1
	.cfi_startproc
	endbr64
	pushq	%rbp
	.cfi_def_cfa_offset 16
	.cfi_offset 6, -16
	movq	%rsp, %rbp
	.cfi_def_cfa_register 6
	movsd	%xmm0, -8(%rbp)
	.loc 1 15 21
	movsd	-8(%rbp), %xmm1
	movsd	.LC0(%rip), %xmm0
	mulsd	%xmm1, %xmm0
	.loc 1 15 27
	movsd	.LC1(%rip), %xmm1
	divsd	%xmm1, %xmm0
	movq	%xmm0, %rax
	.loc 1 16 1
	movq	%rax, %xmm0
	popq	%rbp
	.cfi_def_cfa 7, 8
	ret
	.cfi_endproc
.LFE6:
	.size	rad2deg, .-rad2deg
	.globl	deg2rad
	.type	deg2rad, @function
deg2rad:
.LFB7:
	.loc 1 19 1
	.cfi_startproc
	endbr64
	pushq	%rbp
	.cfi_def_cfa_offset 16
	.cfi_offset 6, -16
	movq	%rsp, %rbp
	.cfi_def_cfa_register 6
	movsd	%xmm0, -8(%rbp)
	.loc 1 20 18
	movsd	-8(%rbp), %xmm1
	movsd	.LC1(%rip), %xmm0
	mulsd	%xmm1, %xmm0
	.loc 1 20 24
	movsd	.LC0(%rip), %xmm1
	divsd	%xmm1, %xmm0
	movq	%xmm0, %rax
	.loc 1 21 1
	movq	%rax, %xmm0
	popq	%rbp
	.cfi_def_cfa 7, 8
	ret
	.cfi_endproc
.LFE7:
	.size	deg2rad, .-deg2rad
	.section	.rodata
	.align 8
.LC0:
	.long	0
	.long	1080459264
	.align 8
.LC1:
	.long	1413754136
	.long	1074340347
	.text
.Letext0:
	.section	.note.GNU-stack,"",@progbits
	.section	.note.gnu.property,"a"
	.align 8
	.long	1f - 0f
	.long	4f - 1f
	.long	5
0:
	.string	"GNU"
1:
	.align 8
	.long	0xc0000002
	.long	3f - 2f
2:
	.long	0x3
3:
	.align 8
4:
